((dp1
S'username'
p2
S'Jeremy'
p3
sS'abc'
p4
S'|:D2|EBBA B2 EB|B2 AB dBAG|FDAD BDAD|FDAD dAFD|\r\nEBBA B2 EB|B2 AB defg|afe^c dBAF|DEFD E2:|\r\n|:gf|eB B2 efge|eB B2 gedB|A2 FA DAFA|A2 FA defg|\r\neB B2 eBgB|eB B2 defg|afe^c dBAF|DEFD E2:|'
p5
sS'name'
p6
S"Cooley's"
p7
sS'setting'
p8
S'1'
sS'mode'
p9
S'Eminor'
p10
sS'date'
p11
S'2001-05-14 18:45:18'
p12
sS'type'
p13
S'reel'
p14
sS'parsed'
p15
(lp16
(isessionparse
Bar
p17
(dp18
S'end_repeat'
p19
I00
sS'notes'
p20
(lp21
(isessionparse
Note
p22
(dp23
S'dur'
p24
cfractions
Fraction
p25
(S'2'
tRp26
sS'pitch'
p27
S'D'
sbasS'start_repeat'
p28
I01
sS'which_ending'
p29
Nsba(isessionparse
Bar
p30
(dp31
g19
I00
sg20
(lp32
(isessionparse
Note
p33
(dp34
g24
g25
(S'1'
tRp35
sg27
S'E'
sba(isessionparse
Note
p36
(dp37
g24
g25
(S'1'
tRp38
sg27
S'B'
sba(isessionparse
Note
p39
(dp40
g24
g25
(S'1'
tRp41
sg27
S'B'
sba(isessionparse
Note
p42
(dp43
g24
g25
(S'1'
tRp44
sg27
S'A'
sba(isessionparse
Note
p45
(dp46
g24
g25
(S'2'
tRp47
sg27
S'B'
sba(isessionparse
Note
p48
(dp49
g24
g25
(S'1'
tRp50
sg27
S'E'
sba(isessionparse
Note
p51
(dp52
g24
g25
(S'1'
tRp53
sg27
S'B'
sbasg28
I00
sg29
Nsba(isessionparse
Bar
p54
(dp55
g19
I00
sg20
(lp56
(isessionparse
Note
p57
(dp58
g24
g25
(S'2'
tRp59
sg27
S'B'
sba(isessionparse
Note
p60
(dp61
g24
g25
(S'1'
tRp62
sg27
S'A'
sba(isessionparse
Note
p63
(dp64
g24
g25
(S'1'
tRp65
sg27
S'B'
sba(isessionparse
Note
p66
(dp67
g24
g25
(S'1'
tRp68
sg27
S'd'
sba(isessionparse
Note
p69
(dp70
g24
g25
(S'1'
tRp71
sg27
S'B'
sba(isessionparse
Note
p72
(dp73
g24
g25
(S'1'
tRp74
sg27
S'A'
sba(isessionparse
Note
p75
(dp76
g24
g25
(S'1'
tRp77
sg27
S'G'
sbasg28
I00
sg29
Nsba(isessionparse
Bar
p78
(dp79
g19
I00
sg20
(lp80
(isessionparse
Note
p81
(dp82
g24
g25
(S'1'
tRp83
sg27
S'F'
sba(isessionparse
Note
p84
(dp85
g24
g25
(S'1'
tRp86
sg27
S'D'
sba(isessionparse
Note
p87
(dp88
g24
g25
(S'1'
tRp89
sg27
S'A'
sba(isessionparse
Note
p90
(dp91
g24
g25
(S'1'
tRp92
sg27
S'D'
sba(isessionparse
Note
p93
(dp94
g24
g25
(S'1'
tRp95
sg27
S'B'
sba(isessionparse
Note
p96
(dp97
g24
g25
(S'1'
tRp98
sg27
S'D'
sba(isessionparse
Note
p99
(dp100
g24
g25
(S'1'
tRp101
sg27
S'A'
sba(isessionparse
Note
p102
(dp103
g24
g25
(S'1'
tRp104
sg27
S'D'
sbasg28
I00
sg29
Nsba(isessionparse
Bar
p105
(dp106
g19
I00
sg20
(lp107
(isessionparse
Note
p108
(dp109
g24
g25
(S'1'
tRp110
sg27
S'F'
sba(isessionparse
Note
p111
(dp112
g24
g25
(S'1'
tRp113
sg27
S'D'
sba(isessionparse
Note
p114
(dp115
g24
g25
(S'1'
tRp116
sg27
S'A'
sba(isessionparse
Note
p117
(dp118
g24
g25
(S'1'
tRp119
sg27
S'D'
sba(isessionparse
Note
p120
(dp121
g24
g25
(S'1'
tRp122
sg27
S'd'
sba(isessionparse
Note
p123
(dp124
g24
g25
(S'1'
tRp125
sg27
S'A'
sba(isessionparse
Note
p126
(dp127
g24
g25
(S'1'
tRp128
sg27
S'F'
sba(isessionparse
Note
p129
(dp130
g24
g25
(S'1'
tRp131
sg27
S'D'
sbasg28
I00
sg29
Nsba(isessionparse
Bar
p132
(dp133
g19
I00
sg20
(lp134
(isessionparse
Note
p135
(dp136
g24
g25
(S'1'
tRp137
sg27
S'E'
sba(isessionparse
Note
p138
(dp139
g24
g25
(S'1'
tRp140
sg27
S'B'
sba(isessionparse
Note
p141
(dp142
g24
g25
(S'1'
tRp143
sg27
S'B'
sba(isessionparse
Note
p144
(dp145
g24
g25
(S'1'
tRp146
sg27
S'A'
sba(isessionparse
Note
p147
(dp148
g24
g25
(S'2'
tRp149
sg27
S'B'
sba(isessionparse
Note
p150
(dp151
g24
g25
(S'1'
tRp152
sg27
S'E'
sba(isessionparse
Note
p153
(dp154
g24
g25
(S'1'
tRp155
sg27
S'B'
sbasg28
I00
sg29
Nsba(isessionparse
Bar
p156
(dp157
g19
I00
sg20
(lp158
(isessionparse
Note
p159
(dp160
g24
g25
(S'2'
tRp161
sg27
S'B'
sba(isessionparse
Note
p162
(dp163
g24
g25
(S'1'
tRp164
sg27
S'A'
sba(isessionparse
Note
p165
(dp166
g24
g25
(S'1'
tRp167
sg27
S'B'
sba(isessionparse
Note
p168
(dp169
g24
g25
(S'1'
tRp170
sg27
S'd'
sba(isessionparse
Note
p171
(dp172
g24
g25
(S'1'
tRp173
sg27
S'e'
sba(isessionparse
Note
p174
(dp175
g24
g25
(S'1'
tRp176
sg27
S'f'
sba(isessionparse
Note
p177
(dp178
g24
g25
(S'1'
tRp179
sg27
S'g'
sbasg28
I00
sg29
Nsba(isessionparse
Bar
p180
(dp181
g19
I00
sg20
(lp182
(isessionparse
Note
p183
(dp184
g24
g25
(S'1'
tRp185
sg27
S'a'
sba(isessionparse
Note
p186
(dp187
g24
g25
(S'1'
tRp188
sg27
S'f'
sba(isessionparse
Note
p189
(dp190
g24
g25
(S'1'
tRp191
sg27
S'e'
sba(isessionparse
Note
p192
(dp193
g24
g25
(S'1'
tRp194
sg27
S'^c'
p195
sba(isessionparse
Note
p196
(dp197
g24
g25
(S'1'
tRp198
sg27
S'd'
sba(isessionparse
Note
p199
(dp200
g24
g25
(S'1'
tRp201
sg27
S'B'
sba(isessionparse
Note
p202
(dp203
g24
g25
(S'1'
tRp204
sg27
S'A'
sba(isessionparse
Note
p205
(dp206
g24
g25
(S'1'
tRp207
sg27
S'F'
sbasg28
I00
sg29
Nsba(isessionparse
Bar
p208
(dp209
g19
I01
sg20
(lp210
(isessionparse
Note
p211
(dp212
g24
g25
(S'1'
tRp213
sg27
S'D'
sba(isessionparse
Note
p214
(dp215
g24
g25
(S'1'
tRp216
sg27
S'E'
sba(isessionparse
Note
p217
(dp218
g24
g25
(S'1'
tRp219
sg27
S'F'
sba(isessionparse
Note
p220
(dp221
g24
g25
(S'1'
tRp222
sg27
S'D'
sba(isessionparse
Note
p223
(dp224
g24
g25
(S'2'
tRp225
sg27
S'E'
sbasg28
I00
sg29
Nsba(isessionparse
Bar
p226
(dp227
g19
I00
sg20
(lp228
(isessionparse
Note
p229
(dp230
g24
g25
(S'1'
tRp231
sg27
S'g'
sba(isessionparse
Note
p232
(dp233
g24
g25
(S'1'
tRp234
sg27
S'f'
sbasg28
I01
sg29
Nsba(isessionparse
Bar
p235
(dp236
g19
I00
sg20
(lp237
(isessionparse
Note
p238
(dp239
g24
g25
(S'1'
tRp240
sg27
S'e'
sba(isessionparse
Note
p241
(dp242
g24
g25
(S'1'
tRp243
sg27
S'B'
sba(isessionparse
Note
p244
(dp245
g24
g25
(S'2'
tRp246
sg27
S'B'
sba(isessionparse
Note
p247
(dp248
g24
g25
(S'1'
tRp249
sg27
S'e'
sba(isessionparse
Note
p250
(dp251
g24
g25
(S'1'
tRp252
sg27
S'f'
sba(isessionparse
Note
p253
(dp254
g24
g25
(S'1'
tRp255
sg27
S'g'
sba(isessionparse
Note
p256
(dp257
g24
g25
(S'1'
tRp258
sg27
S'e'
sbasg28
I00
sg29
Nsba(isessionparse
Bar
p259
(dp260
g19
I00
sg20
(lp261
(isessionparse
Note
p262
(dp263
g24
g25
(S'1'
tRp264
sg27
S'e'
sba(isessionparse
Note
p265
(dp266
g24
g25
(S'1'
tRp267
sg27
S'B'
sba(isessionparse
Note
p268
(dp269
g24
g25
(S'2'
tRp270
sg27
S'B'
sba(isessionparse
Note
p271
(dp272
g24
g25
(S'1'
tRp273
sg27
S'g'
sba(isessionparse
Note
p274
(dp275
g24
g25
(S'1'
tRp276
sg27
S'e'
sba(isessionparse
Note
p277
(dp278
g24
g25
(S'1'
tRp279
sg27
S'd'
sba(isessionparse
Note
p280
(dp281
g24
g25
(S'1'
tRp282
sg27
S'B'
sbasg28
I00
sg29
Nsba(isessionparse
Bar
p283
(dp284
g19
I00
sg20
(lp285
(isessionparse
Note
p286
(dp287
g24
g25
(S'2'
tRp288
sg27
S'A'
sba(isessionparse
Note
p289
(dp290
g24
g25
(S'1'
tRp291
sg27
S'F'
sba(isessionparse
Note
p292
(dp293
g24
g25
(S'1'
tRp294
sg27
S'A'
sba(isessionparse
Note
p295
(dp296
g24
g25
(S'1'
tRp297
sg27
S'D'
sba(isessionparse
Note
p298
(dp299
g24
g25
(S'1'
tRp300
sg27
S'A'
sba(isessionparse
Note
p301
(dp302
g24
g25
(S'1'
tRp303
sg27
S'F'
sba(isessionparse
Note
p304
(dp305
g24
g25
(S'1'
tRp306
sg27
S'A'
sbasg28
I00
sg29
Nsba(isessionparse
Bar
p307
(dp308
g19
I00
sg20
(lp309
(isessionparse
Note
p310
(dp311
g24
g25
(S'2'
tRp312
sg27
S'A'
sba(isessionparse
Note
p313
(dp314
g24
g25
(S'1'
tRp315
sg27
S'F'
sba(isessionparse
Note
p316
(dp317
g24
g25
(S'1'
tRp318
sg27
S'A'
sba(isessionparse
Note
p319
(dp320
g24
g25
(S'1'
tRp321
sg27
S'd'
sba(isessionparse
Note
p322
(dp323
g24
g25
(S'1'
tRp324
sg27
S'e'
sba(isessionparse
Note
p325
(dp326
g24
g25
(S'1'
tRp327
sg27
S'f'
sba(isessionparse
Note
p328
(dp329
g24
g25
(S'1'
tRp330
sg27
S'g'
sbasg28
I00
sg29
Nsba(isessionparse
Bar
p331
(dp332
g19
I00
sg20
(lp333
(isessionparse
Note
p334
(dp335
g24
g25
(S'1'
tRp336
sg27
S'e'
sba(isessionparse
Note
p337
(dp338
g24
g25
(S'1'
tRp339
sg27
S'B'
sba(isessionparse
Note
p340
(dp341
g24
g25
(S'2'
tRp342
sg27
S'B'
sba(isessionparse
Note
p343
(dp344
g24
g25
(S'1'
tRp345
sg27
S'e'
sba(isessionparse
Note
p346
(dp347
g24
g25
(S'1'
tRp348
sg27
S'B'
sba(isessionparse
Note
p349
(dp350
g24
g25
(S'1'
tRp351
sg27
S'g'
sba(isessionparse
Note
p352
(dp353
g24
g25
(S'1'
tRp354
sg27
S'B'
sbasg28
I00
sg29
Nsba(isessionparse
Bar
p355
(dp356
g19
I00
sg20
(lp357
(isessionparse
Note
p358
(dp359
g24
g25
(S'1'
tRp360
sg27
S'e'
sba(isessionparse
Note
p361
(dp362
g24
g25
(S'1'
tRp363
sg27
S'B'
sba(isessionparse
Note
p364
(dp365
g24
g25
(S'2'
tRp366
sg27
S'B'
sba(isessionparse
Note
p367
(dp368
g24
g25
(S'1'
tRp369
sg27
S'd'
sba(isessionparse
Note
p370
(dp371
g24
g25
(S'1'
tRp372
sg27
S'e'
sba(isessionparse
Note
p373
(dp374
g24
g25
(S'1'
tRp375
sg27
S'f'
sba(isessionparse
Note
p376
(dp377
g24
g25
(S'1'
tRp378
sg27
S'g'
sbasg28
I00
sg29
Nsba(isessionparse
Bar
p379
(dp380
g19
I00
sg20
(lp381
(isessionparse
Note
p382
(dp383
g24
g25
(S'1'
tRp384
sg27
S'a'
sba(isessionparse
Note
p385
(dp386
g24
g25
(S'1'
tRp387
sg27
S'f'
sba(isessionparse
Note
p388
(dp389
g24
g25
(S'1'
tRp390
sg27
S'e'
sba(isessionparse
Note
p391
(dp392
g24
g25
(S'1'
tRp393
sg27
S'^c'
p394
sba(isessionparse
Note
p395
(dp396
g24
g25
(S'1'
tRp397
sg27
S'd'
sba(isessionparse
Note
p398
(dp399
g24
g25
(S'1'
tRp400
sg27
S'B'
sba(isessionparse
Note
p401
(dp402
g24
g25
(S'1'
tRp403
sg27
S'A'
sba(isessionparse
Note
p404
(dp405
g24
g25
(S'1'
tRp406
sg27
S'F'
sbasg28
I00
sg29
Nsba(isessionparse
Bar
p407
(dp408
g19
I01
sg20
(lp409
(isessionparse
Note
p410
(dp411
g24
g25
(S'1'
tRp412
sg27
S'D'
sba(isessionparse
Note
p413
(dp414
g24
g25
(S'1'
tRp415
sg27
S'E'
sba(isessionparse
Note
p416
(dp417
g24
g25
(S'1'
tRp418
sg27
S'F'
sba(isessionparse
Note
p419
(dp420
g24
g25
(S'1'
tRp421
sg27
S'D'
sba(isessionparse
Note
p422
(dp423
g24
g25
(S'2'
tRp424
sg27
S'E'
sbasg28
I00
sg29
NsbasS'tune'
p425
S'1'
s(lp426
(isessionparse
Bar
p427
(dp428
g19
I00
sg20
(lp429
(isessionparse
Note
p430
(dp431
g24
g26
sg27
S'D'
sbasg28
I01
sg29
Nsba(isessionparse
Bar
p432
(dp433
g19
I00
sg20
(lp434
(isessionparse
Note
p435
(dp436
g24
g35
sg27
S'B'
sba(isessionparse
Note
p437
(dp438
g24
g38
sg27
S'A'
sba(isessionparse
Note
p439
(dp440
g24
g41
sg27
S'B'
sba(isessionparse
Note
p441
(dp442
g24
g44
sg27
S'g'
sba(isessionparse
Note
p443
(dp444
g24
g47
sg27
S'A'
sba(isessionparse
Note
p445
(dp446
g24
g50
sg27
S'B'
sba(isessionparse
Note
p447
(dp448
g24
g53
sg27
S'B'
sbasg28
I00
sg29
Nsba(isessionparse
Bar
p449
(dp450
g19
I00
sg20
(lp451
(isessionparse
Note
p452
(dp453
g24
g59
sg27
S'a'
sba(isessionparse
Note
p454
(dp455
g24
g62
sg27
S'B'
sba(isessionparse
Note
p456
(dp457
g24
g65
sg27
S'B'
sba(isessionparse
Note
p458
(dp459
g24
g68
sg27
S'B'
sba(isessionparse
Note
p460
(dp461
g24
g71
sg27
S'D'
sba(isessionparse
Note
p462
(dp463
g24
g74
sg27
S'F'
sba(isessionparse
Note
p464
(dp465
g24
g77
sg27
S'g'
sbasg28
I00
sg29
Nsba(isessionparse
Bar
p466
(dp467
g19
I00
sg20
(lp468
(isessionparse
Note
p469
(dp470
g24
g83
sg27
S'f'
sba(isessionparse
Note
p471
(dp472
g24
g86
sg27
S'A'
sba(isessionparse
Note
p473
(dp474
g24
g89
sg27
S'A'
sba(isessionparse
Note
p475
(dp476
g24
g92
sg27
S'A'
sba(isessionparse
Note
p477
(dp478
g24
g95
sg27
S'F'
sba(isessionparse
Note
p479
(dp480
g24
g98
sg27
S'c'
sba(isessionparse
Note
p481
(dp482
g24
g101
sg27
S'B'
sba(isessionparse
Note
p483
(dp484
g24
g104
sg27
S'A'
sbasg28
I00
sg29
Nsba(isessionparse
Bar
p485
(dp486
g19
I00
sg20
(lp487
(isessionparse
Note
p488
(dp489
g24
g110
sg27
S'd'
sba(isessionparse
Note
p490
(dp491
g24
g113
sg27
S'E'
sba(isessionparse
Note
p492
(dp493
g24
g116
sg27
S'F'
sba(isessionparse
Note
p494
(dp495
g24
g119
sg27
S'G'
sba(isessionparse
Note
p496
(dp497
g24
g122
sg27
S'D'
sba(isessionparse
Note
p498
(dp499
g24
g125
sg27
S'E'
sba(isessionparse
Note
p500
(dp501
g24
g128
sg27
S'E'
sba(isessionparse
Note
p502
(dp503
g24
g131
sg27
S'B'
sbasg28
I00
sg29
Nsba(isessionparse
Bar
p504
(dp505
g19
I00
sg20
(lp506
(isessionparse
Note
p507
(dp508
g24
g137
sg27
S'B'
sba(isessionparse
Note
p509
(dp510
g24
g140
sg27
S'D'
sba(isessionparse
Note
p511
(dp512
g24
g143
sg27
S'E'
sba(isessionparse
Note
p513
(dp514
g24
g146
sg27
S'B'
sba(isessionparse
Note
p515
(dp516
g24
g149
sg27
S'd'
sba(isessionparse
Note
p517
(dp518
g24
g152
sg27
S'E'
sba(isessionparse
Note
p519
(dp520
g24
g155
sg27
S'e'
sbasg28
I00
sg29
Nsba(isessionparse
Bar
p521
(dp522
g19
I00
sg20
(lp523
(isessionparse
Note
p524
(dp525
g24
g161
sg27
S'b'
sba(isessionparse
Note
p526
(dp527
g24
g164
sg27
S'E'
sba(isessionparse
Note
p528
(dp529
g24
g167
sg27
S'B'
sba(isessionparse
Note
p530
(dp531
g24
g170
sg27
S'A'
sba(isessionparse
Note
p532
(dp533
g24
g173
sg27
S'B'
sba(isessionparse
Note
p534
(dp535
g24
g176
sg27
S'F'
sba(isessionparse
Note
p536
(dp537
g24
g179
sg27
S'E'
sbasg28
I00
sg29
Nsba(isessionparse
Bar
p538
(dp539
g19
I00
sg20
(lp540
(isessionparse
Note
p541
(dp542
g24
g185
sg27
S'b'
sba(isessionparse
Note
p543
(dp544
g24
g188
sg27
S'f'
sba(isessionparse
Note
p545
(dp546
g24
g191
sg27
S'a'
sba(isessionparse
Note
p547
(dp548
g24
g194
sg27
S'F'
sba(isessionparse
Note
p549
(dp550
g24
g198
sg27
S'A'
sba(isessionparse
Note
p551
(dp552
g24
g201
sg27
S'D'
sba(isessionparse
Note
p553
(dp554
g24
g204
sg27
S'F'
sba(isessionparse
Note
p555
(dp556
g24
g207
sg27
S'f'
sbasg28
I00
sg29
Nsba(isessionparse
Bar
p557
(dp558
g19
I01
sg20
(lp559
(isessionparse
Note
p560
(dp561
g24
g213
sg27
S'C'
sba(isessionparse
Note
p562
(dp563
g24
g216
sg27
S'e'
sba(isessionparse
Note
p564
(dp565
g24
g219
sg27
S'D'
sba(isessionparse
Note
p566
(dp567
g24
g222
sg27
S'd'
sba(isessionparse
Note
p568
(dp569
g24
g225
sg27
S'B'
sbasg28
I00
sg29
Nsbag427
ag432
ag449
ag466
ag485
ag504
ag521
ag538
ag557
a(lp570
(isessionparse
Bar
p571
(dp572
g19
I00
sg20
(lp573
(isessionparse
Note
p574
(dp575
g24
g26
sg27
S'F'
sbasg28
I01
sg29
Nsba(isessionparse
Bar
p576
(dp577
g19
I00
sg20
(lp578
(isessionparse
Note
p579
(dp580
g24
g35
sg27
S'd'
sba(isessionparse
Note
p581
(dp582
g24
g38
sg27
S'c'
sba(isessionparse
Note
p583
(dp584
g24
g41
sg27
S'G'
sba(isessionparse
Note
p585
(dp586
g24
g44
sg27
S'g'
sba(isessionparse
Note
p587
(dp588
g24
g47
sg27
S'D'
sba(isessionparse
Note
p589
(dp590
g24
g50
sg27
S'G'
sba(isessionparse
Note
p591
(dp592
g24
g53
sg27
S'b'
sbasg28
I00
sg29
Nsba(isessionparse
Bar
p593
(dp594
g19
I00
sg20
(lp595
(isessionparse
Note
p596
(dp597
g24
g59
sg27
S'g'
sba(isessionparse
Note
p598
(dp599
g24
g62
sg27
S'c'
sba(isessionparse
Note
p600
(dp601
g24
g65
sg27
S'a'
sba(isessionparse
Note
p602
(dp603
g24
g68
sg27
S'E'
sba(isessionparse
Note
p604
(dp605
g24
g71
sg27
S'B'
sba(isessionparse
Note
p606
(dp607
g24
g74
sg27
S'd'
sba(isessionparse
Note
p608
(dp609
g24
g77
sg27
S'd'
sbasg28
I00
sg29
Nsba(isessionparse
Bar
p610
(dp611
g19
I00
sg20
(lp612
(isessionparse
Note
p613
(dp614
g24
g83
sg27
S'E'
sba(isessionparse
Note
p615
(dp616
g24
g86
sg27
S'e'
sba(isessionparse
Note
p617
(dp618
g24
g89
sg27
S'C'
sba(isessionparse
Note
p619
(dp620
g24
g92
sg27
S'A'
sba(isessionparse
Note
p621
(dp622
g24
g95
sg27
S'c'
sba(isessionparse
Note
p623
(dp624
g24
g98
sg27
S'g'
sba(isessionparse
Note
p625
(dp626
g24
g101
sg27
S'a'
sba(isessionparse
Note
p627
(dp628
g24
g104
sg27
S'A'
sbasg28
I00
sg29
Nsba(isessionparse
Bar
p629
(dp630
g19
I00
sg20
(lp631
(isessionparse
Note
p632
(dp633
g24
g110
sg27
S'c'
sba(isessionparse
Note
p634
(dp635
g24
g113
sg27
S'E'
sba(isessionparse
Note
p636
(dp637
g24
g116
sg27
S'e'
sba(isessionparse
Note
p638
(dp639
g24
g119
sg27
S'D'
sba(isessionparse
Note
p640
(dp641
g24
g122
sg27
S'B'
sba(isessionparse
Note
p642
(dp643
g24
g125
sg27
S'B'
sba(isessionparse
Note
p644
(dp645
g24
g128
sg27
S'A'
sba(isessionparse
Note
p646
(dp647
g24
g131
sg27
S'D'
sbasg28
I00
sg29
Nsba(isessionparse
Bar
p648
(dp649
g19
I00
sg20
(lp650
(isessionparse
Note
p651
(dp652
g24
g137
sg27
S'g'
sba(isessionparse
Note
p653
(dp654
g24
g140
sg27
S'b'
sba(isessionparse
Note
p655
(dp656
g24
g143
sg27
S'g'
sba(isessionparse
Note
p657
(dp658
g24
g146
sg27
S'c'
sba(isessionparse
Note
p659
(dp660
g24
g149
sg27
S'e'
sba(isessionparse
Note
p661
(dp662
g24
g152
sg27
S'B'
sba(isessionparse
Note
p663
(dp664
g24
g155
sg27
S'e'
sbasg28
I00
sg29
Nsba(isessionparse
Bar
p665
(dp666
g19
I00
sg20
(lp667
(isessionparse
Note
p668
(dp669
g24
g161
sg27
S'C'
sba(isessionparse
Note
p670
(dp671
g24
g164
sg27
S'a'
sba(isessionparse
Note
p672
(dp673
g24
g167
sg27
S'B'
sba(isessionparse
Note
p674
(dp675
g24
g170
sg27
S'F'
sba(isessionparse
Note
p676
(dp677
g24
g173
sg27
S'A'
sba(isessionparse
Note
p678
(dp679
g24
g176
sg27
S'E'
sba(isessionparse
Note
p680
(dp681
g24
g179
sg27
S'b'
sbasg28
I00
sg29
Nsba(isessionparse
Bar
p682
(dp683
g19
I00
sg20
(lp684
(isessionparse
Note
p685
(dp686
g24
g185
sg27
S'f'
sba(isessionparse
Note
p687
(dp688
g24
g188
sg27
S'g'
sba(isessionparse
Note
p689
(dp690
g24
g191
sg27
S'e'
sba(isessionparse
Note
p691
(dp692
g24
g194
sg27
S'b'
sba(isessionparse
Note
p693
(dp694
g24
g198
sg27
S'A'
sba(isessionparse
Note
p695
(dp696
g24
g201
sg27
S'a'
sba(isessionparse
Note
p697
(dp698
g24
g204
sg27
S'A'
sba(isessionparse
Note
p699
(dp700
g24
g207
sg27
S'G'
sbasg28
I00
sg29
Nsba(isessionparse
Bar
p701
(dp702
g19
I01
sg20
(lp703
(isessionparse
Note
p704
(dp705
g24
g213
sg27
S'C'
sba(isessionparse
Note
p706
(dp707
g24
g216
sg27
S'E'
sba(isessionparse
Note
p708
(dp709
g24
g219
sg27
S'F'
sba(isessionparse
Note
p710
(dp711
g24
g222
sg27
S'G'
sba(isessionparse
Note
p712
(dp713
g24
g225
sg27
S'B'
sbasg28
I00
sg29
Nsbag571
ag576
ag593
ag610
ag629
ag648
ag665
ag682
ag701
at.